; Function Attrs: mustprogress uwtable
define void @_ZN7rocksdb15FileTraceReader5ResetEv(ptr dead_on_unwind noalias writable sret(%"class.rocksdb::Status") align 8 %0, ptr noundef nonnull align 8 captures(none) dereferenceable(48) %1) unnamed_addr #4 align 2 personality ptr @__gxx_personality_v0 {
  %3 = alloca %"class.rocksdb::Slice", align 8
  %4 = alloca %"class.rocksdb::Slice", align 8
  %5 = getelementptr inbounds nuw i8, ptr %1, i64 8
  %6 = load ptr, ptr %5, align 8, !tbaa !20
  %.not.i = icmp eq ptr %6, null
  br i1 %.not.i, label %7, label %10

7:                                                ; preds = %2
  call void @llvm.lifetime.start.p0(i64 16, ptr nonnull %3) #22
  store ptr @.str.40, ptr %3, align 8, !tbaa !22
  %8 = getelementptr inbounds nuw i8, ptr %3, i64 8
  store i64 22, ptr %8, align 8, !tbaa !41
  call void @llvm.lifetime.start.p0(i64 16, ptr nonnull %4) #22
  store ptr @.str, ptr %4, align 8, !tbaa !22
  %9 = getelementptr inbounds nuw i8, ptr %4, i64 8
  store i64 0, ptr %9, align 8, !tbaa !41
  call void @_ZN7rocksdb6StatusC2ENS0_4CodeENS0_7SubCodeERKNS_5SliceES5_NS0_8SeverityE(ptr noundef nonnull align 8 dereferenceable(16) %0, i8 noundef zeroext 5, i8 noundef zeroext 0, ptr noundef nonnull align 8 dereferenceable(16) %3, ptr noundef nonnull align 8 dereferenceable(16) %4, i8 noundef zeroext 0)
  call void @llvm.lifetime.end.p0(i64 16, ptr nonnull %4) #22
  call void @llvm.lifetime.end.p0(i64 16, ptr nonnull %3) #22
  br label %13

10:                                               ; preds = %2
  %11 = getelementptr inbounds nuw i8, ptr %1, i64 32
  store i64 0, ptr %11, align 8, !tbaa !42
  %12 = getelementptr inbounds nuw i8, ptr %0, i64 8
  store ptr null, ptr %12, align 8, !tbaa !36, !alias.scope !43
  tail call void @llvm.memset.p0.i64(ptr noundef nonnull align 8 dereferenceable(16) %0, i8 0, i64 6, i1 false), !alias.scope !43
  br label %13

13:                                               ; preds = %10, %7
  ret void
}